; Function Attrs: nounwind uwtable
define i64 @png_process_data_pause(ptr noalias noundef %0, i32 noundef %1) local_unnamed_addr #0 {
  %.not = icmp eq ptr %0, null
  br i1 %.not, label %10, label %3

3:                                                ; preds = %2
  %.not12 = icmp eq i32 %1, 0
  br i1 %.not12, label %5, label %4

4:                                                ; preds = %3
  tail call void @png_push_save_buffer(ptr noundef nonnull %0)
  br label %10

5:                                                ; preds = %3
  %6 = getelementptr inbounds i8, ptr %0, i64 864
  %7 = load i64, ptr %6, align 8
  store i64 0, ptr %6, align 8
  %8 = getelementptr inbounds i8, ptr %0, i64 848
  %9 = load i64, ptr %8, align 8
  %spec.select = tail call i64 @llvm.usub.sat.i64(i64 %7, i64 %9)
  br label %10

10:                                               ; preds = %5, %2, %4
  %.0 = phi i64 [ 0, %4 ], [ 0, %2 ], [ %spec.select, %5 ]
  ret i64 %.0
}